target datalayout = "e-m:e-p270:32:32-p271:32:32-p272:64:64-i64:64-i128:128-f80:128-n8:16:32:64-S128"
target triple = "x86_64-pc-linux-gnu"

%struct.QualCost = type { double, double }
%struct.ParamPathInfo = type { i32, ptr, double, ptr, ptr }
%struct.Path = type { i32, i32, ptr, ptr, ptr, i8, i8, i32, double, i32, double, double, ptr }
%struct.RelOptInfo = type { i32, i32, ptr, double, i8, i8, i8, ptr, ptr, ptr, ptr, ptr, ptr, ptr, ptr, ptr, ptr, i32, i32, i32, i16, i16, ptr, ptr, ptr, ptr, ptr, ptr, ptr, ptr, i32, double, double, ptr, ptr, ptr, i32, i32, i32, i32, i8, ptr, ptr, ptr, ptr, ptr, %struct.QualCost, i32, ptr, i8, i8, ptr, ptr, ptr, ptr, i32, ptr, i8, ptr, ptr, ptr, ptr, ptr, ptr }
%struct.PathTarget = type { i32, ptr, ptr, %struct.QualCost, i32, i32 }
%struct.ForEachState = type { ptr, i32 }
%struct.List = type { i32, i32, i32, ptr, [0 x %union.ListCell] }
%union.ListCell = type { ptr }
%struct.cost_qual_eval_context = type { ptr, %struct.QualCost }

@cpu_tuple_cost = dso_local global double 1.000000e-02, align 8
@enable_seqscan = dso_local global i8 1, align 1
@parallel_leader_participation = external global i8, align 1

; Function Attrs: nounwind uwtable
define dso_local void @cost_qual_eval(ptr noundef %0, ptr noundef %1, ptr noundef %2) #0 {
  %4 = alloca ptr, align 8
  %5 = alloca ptr, align 8
  %6 = alloca ptr, align 8
  %7 = alloca %struct.cost_qual_eval_context, align 8
  %8 = alloca ptr, align 8
  %9 = alloca %struct.ForEachState, align 8
  %10 = alloca ptr, align 8
  store ptr %0, ptr %4, align 8
  store ptr %1, ptr %5, align 8
  store ptr %2, ptr %6, align 8
  call void @llvm.lifetime.start.p0(i64 24, ptr %7) #9
  call void @llvm.lifetime.start.p0(i64 8, ptr %8) #9
  %11 = load ptr, ptr %6, align 8
  %12 = getelementptr inbounds nuw %struct.cost_qual_eval_context, ptr %7, i32 0, i32 0
  store ptr %11, ptr %12, align 8
  %13 = getelementptr inbounds nuw %struct.cost_qual_eval_context, ptr %7, i32 0, i32 1
  %14 = getelementptr inbounds nuw %struct.QualCost, ptr %13, i32 0, i32 0
  store double 0.000000e+00, ptr %14, align 8
  %15 = getelementptr inbounds nuw %struct.cost_qual_eval_context, ptr %7, i32 0, i32 1
  %16 = getelementptr inbounds nuw %struct.QualCost, ptr %15, i32 0, i32 1
  store double 0.000000e+00, ptr %16, align 8
  call void @llvm.lifetime.start.p0(i64 16, ptr %9) #9
  %17 = getelementptr inbounds nuw %struct.ForEachState, ptr %9, i32 0, i32 0
  %18 = load ptr, ptr %5, align 8
  store ptr %18, ptr %17, align 8
  %19 = getelementptr inbounds nuw %struct.ForEachState, ptr %9, i32 0, i32 1
  store i32 0, ptr %19, align 8
  %20 = getelementptr i8, ptr %9, i64 12
  call void @llvm.memset.p0.i64(ptr align 4 %20, i8 0, i64 4, i1 false)
  br label %21

21:                                               ; preds = %52, %3
  %22 = getelementptr inbounds nuw %struct.ForEachState, ptr %9, i32 0, i32 0
  %23 = load ptr, ptr %22, align 8
  %24 = icmp ne ptr %23, null
  br i1 %24, label %25, label %42

25:                                               ; preds = %21
  %26 = getelementptr inbounds nuw %struct.ForEachState, ptr %9, i32 0, i32 1
  %27 = load i32, ptr %26, align 8
  %28 = getelementptr inbounds nuw %struct.ForEachState, ptr %9, i32 0, i32 0
  %29 = load ptr, ptr %28, align 8
  %30 = getelementptr inbounds nuw %struct.List, ptr %29, i32 0, i32 1
  %31 = load i32, ptr %30, align 4
  %32 = icmp slt i32 %27, %31
  br i1 %32, label %33, label %42

33:                                               ; preds = %25
  %34 = getelementptr inbounds nuw %struct.ForEachState, ptr %9, i32 0, i32 0
  %35 = load ptr, ptr %34, align 8
  %36 = getelementptr inbounds nuw %struct.List, ptr %35, i32 0, i32 3
  %37 = load ptr, ptr %36, align 8
  %38 = getelementptr inbounds nuw %struct.ForEachState, ptr %9, i32 0, i32 1
  %39 = load i32, ptr %38, align 8
  %40 = sext i32 %39 to i64
  %41 = getelementptr inbounds %union.ListCell, ptr %37, i64 %40
  store ptr %41, ptr %8, align 8
  br label %43

42:                                               ; preds = %25, %21
  store ptr null, ptr %8, align 8
  br label %43

43:                                               ; preds = %42, %33
  %44 = phi i32 [ 1, %33 ], [ 0, %42 ]
  %45 = icmp ne i32 %44, 0
  br i1 %45, label %47, label %46

46:                                               ; preds = %43
  call void @llvm.lifetime.end.p0(i64 16, ptr %9) #9
  br label %56

47:                                               ; preds = %43
  call void @llvm.lifetime.start.p0(i64 8, ptr %10) #9
  %48 = load ptr, ptr %8, align 8
  %49 = load ptr, ptr %48, align 8
  store ptr %49, ptr %10, align 8
  %50 = load ptr, ptr %10, align 8
  %51 = call zeroext i1 @cost_qual_eval_walker(ptr noundef %50, ptr noundef %7)
  call void @llvm.lifetime.end.p0(i64 8, ptr %10) #9
  br label %52

52:                                               ; preds = %47
  %53 = getelementptr inbounds nuw %struct.ForEachState, ptr %9, i32 0, i32 1
  %54 = load i32, ptr %53, align 8
  %55 = add i32 %54, 1
  store i32 %55, ptr %53, align 8
  br label %21, !llvm.loop !8

56:                                               ; preds = %46
  %57 = load ptr, ptr %4, align 8
  %58 = getelementptr inbounds nuw %struct.cost_qual_eval_context, ptr %7, i32 0, i32 1
  call void @llvm.memcpy.p0.p0.i64(ptr align 8 %57, ptr align 8 %58, i64 16, i1 false)
  call void @llvm.lifetime.end.p0(i64 8, ptr %8) #9
  call void @llvm.lifetime.end.p0(i64 24, ptr %7) #9
  ret void
}

; Function Attrs: nounwind uwtable
define dso_local double @clamp_row_est(double noundef %0) #0 {
  %2 = alloca double, align 8
  store double %0, ptr %2, align 8
  %3 = load double, ptr %2, align 8
  %4 = fcmp ogt double %3, 1.000000e+100
  br i1 %4, label %8, label %5

5:                                                ; preds = %1
  %6 = load double, ptr %2, align 8
  %7 = call i1 @llvm.is.fpclass.f64(double %6, i32 3)
  br i1 %7, label %8, label %9

8:                                                ; preds = %5, %1
  store double 1.000000e+100, ptr %2, align 8
  br label %17

9:                                                ; preds = %5
  %10 = load double, ptr %2, align 8
  %11 = fcmp ole double %10, 1.000000e+00
  br i1 %11, label %12, label %13

12:                                               ; preds = %9
  store double 1.000000e+00, ptr %2, align 8
  br label %16

13:                                               ; preds = %9
  %14 = load double, ptr %2, align 8
  %15 = call double @llvm.rint.f64(double %14)
  store double %15, ptr %2, align 8
  br label %16

16:                                               ; preds = %13, %12
  br label %17

17:                                               ; preds = %16, %8
  %18 = load double, ptr %2, align 8
  ret double %18
}

; Function Attrs: nounwind uwtable
define internal double @get_parallel_divisor(ptr noundef %0) #0 {
  %2 = alloca ptr, align 8
  %3 = alloca double, align 8
  %4 = alloca double, align 8
  store ptr %0, ptr %2, align 8
  call void @llvm.lifetime.start.p0(i64 8, ptr %3) #9
  %5 = load ptr, ptr %2, align 8
  %6 = getelementptr inbounds nuw %struct.Path, ptr %5, i32 0, i32 7
  %7 = load i32, ptr %6, align 4
  %8 = sitofp i32 %7 to double
  store double %8, ptr %3, align 8
  %9 = load i8, ptr @parallel_leader_participation, align 1, !range !4, !noundef !5
  %10 = trunc i8 %9 to i1
  br i1 %10, label %11, label %24

11:                                               ; preds = %1
  call void @llvm.lifetime.start.p0(i64 8, ptr %4) #9
  %12 = load ptr, ptr %2, align 8
  %13 = getelementptr inbounds nuw %struct.Path, ptr %12, i32 0, i32 7
  %14 = load i32, ptr %13, align 4
  %15 = sitofp i32 %14 to double
  %16 = call double @llvm.fmuladd.f64(double -3.000000e-01, double %15, double 1.000000e+00)
  store double %16, ptr %4, align 8
  %17 = load double, ptr %4, align 8
  %18 = fcmp ogt double %17, 0.000000e+00
  br i1 %18, label %19, label %23

19:                                               ; preds = %11
  %20 = load double, ptr %4, align 8
  %21 = load double, ptr %3, align 8
  %22 = fadd double %21, %20
  store double %22, ptr %3, align 8
  br label %23

23:                                               ; preds = %19, %11
  call void @llvm.lifetime.end.p0(i64 8, ptr %4) #9
  br label %24

24:                                               ; preds = %23, %1
  %25 = load double, ptr %3, align 8
  call void @llvm.lifetime.end.p0(i64 8, ptr %3) #9
  ret double %25
}

; Function Attrs: nounwind uwtable
define internal void @get_restriction_qual_cost(ptr noundef %0, ptr noundef %1, ptr noundef %2, ptr noundef %3) #0 {
  %5 = alloca ptr, align 8
  %6 = alloca ptr, align 8
  %7 = alloca ptr, align 8
  %8 = alloca ptr, align 8
  store ptr %0, ptr %5, align 8
  store ptr %1, ptr %6, align 8
  store ptr %2, ptr %7, align 8
  store ptr %3, ptr %8, align 8
  %9 = load ptr, ptr %7, align 8
  %10 = icmp ne ptr %9, null
  br i1 %10, label %11, label %33

11:                                               ; preds = %4
  %12 = load ptr, ptr %8, align 8
  %13 = load ptr, ptr %7, align 8
  %14 = getelementptr inbounds nuw %struct.ParamPathInfo, ptr %13, i32 0, i32 3
  %15 = load ptr, ptr %14, align 8
  %16 = load ptr, ptr %5, align 8
  call void @cost_qual_eval(ptr noundef %12, ptr noundef %15, ptr noundef %16)
  %17 = load ptr, ptr %6, align 8
  %18 = getelementptr inbounds nuw %struct.RelOptInfo, ptr %17, i32 0, i32 46
  %19 = getelementptr inbounds nuw %struct.QualCost, ptr %18, i32 0, i32 0
  %20 = load double, ptr %19, align 8
  %21 = load ptr, ptr %8, align 8
  %22 = getelementptr inbounds nuw %struct.QualCost, ptr %21, i32 0, i32 0
  %23 = load double, ptr %22, align 8
  %24 = fadd double %23, %20
  store double %24, ptr %22, align 8
  %25 = load ptr, ptr %6, align 8
  %26 = getelementptr inbounds nuw %struct.RelOptInfo, ptr %25, i32 0, i32 46
  %27 = getelementptr inbounds nuw %struct.QualCost, ptr %26, i32 0, i32 1
  %28 = load double, ptr %27, align 8
  %29 = load ptr, ptr %8, align 8
  %30 = getelementptr inbounds nuw %struct.QualCost, ptr %29, i32 0, i32 1
  %31 = load double, ptr %30, align 8
  %32 = fadd double %31, %28
  store double %32, ptr %30, align 8
  br label %37

33:                                               ; preds = %4
  %34 = load ptr, ptr %8, align 8
  %35 = load ptr, ptr %6, align 8
  %36 = getelementptr inbounds nuw %struct.RelOptInfo, ptr %35, i32 0, i32 46
  call void @llvm.memcpy.p0.p0.i64(ptr align 8 %34, ptr align 8 %36, i64 16, i1 false)
  br label %37

37:                                               ; preds = %33, %11
  ret void
}

; Function Attrs: nounwind uwtable
define dso_local void @cost_seqscan(ptr noundef %0, ptr noundef %1, ptr noundef %2, ptr noundef %3) #0 {
  %5 = alloca ptr, align 8
  %6 = alloca ptr, align 8
  %7 = alloca ptr, align 8
  %8 = alloca ptr, align 8
  %9 = alloca double, align 8
  %10 = alloca double, align 8
  %11 = alloca double, align 8
  %12 = alloca double, align 8
  %13 = alloca %struct.QualCost, align 8
  %14 = alloca double, align 8
  %15 = alloca double, align 8
  store ptr %0, ptr %5, align 8
  store ptr %1, ptr %6, align 8
  store ptr %2, ptr %7, align 8
  store ptr %3, ptr %8, align 8
  call void @llvm.lifetime.start.p0(i64 8, ptr %9) #9
  store double 0.000000e+00, ptr %9, align 8
  call void @llvm.lifetime.start.p0(i64 8, ptr %10) #9
  call void @llvm.lifetime.start.p0(i64 8, ptr %11) #9
  call void @llvm.lifetime.start.p0(i64 8, ptr %12) #9
  call void @llvm.lifetime.start.p0(i64 16, ptr %13) #9
  call void @llvm.lifetime.start.p0(i64 8, ptr %14) #9
  %16 = load ptr, ptr %8, align 8
  %17 = icmp ne ptr %16, null
  br i1 %17, label %18, label %24

18:                                               ; preds = %4
  %19 = load ptr, ptr %8, align 8
  %20 = getelementptr inbounds nuw %struct.ParamPathInfo, ptr %19, i32 0, i32 2
  %21 = load double, ptr %20, align 8
  %22 = load ptr, ptr %5, align 8
  %23 = getelementptr inbounds nuw %struct.Path, ptr %22, i32 0, i32 8
  store double %21, ptr %23, align 8
  br label %30

24:                                               ; preds = %4
  %25 = load ptr, ptr %7, align 8
  %26 = getelementptr inbounds nuw %struct.RelOptInfo, ptr %25, i32 0, i32 3
  %27 = load double, ptr %26, align 8
  %28 = load ptr, ptr %5, align 8
  %29 = getelementptr inbounds nuw %struct.Path, ptr %28, i32 0, i32 8
  store double %27, ptr %29, align 8
  br label %30

30:                                               ; preds = %24, %18
  %31 = load ptr, ptr %7, align 8
  %32 = getelementptr inbounds nuw %struct.RelOptInfo, ptr %31, i32 0, i32 18
  %33 = load i32, ptr %32, align 4
  call void @get_tablespace_page_costs(i32 noundef %33, ptr noundef null, ptr noundef %12)
  %34 = load double, ptr %12, align 8
  %35 = load ptr, ptr %7, align 8
  %36 = getelementptr inbounds nuw %struct.RelOptInfo, ptr %35, i32 0, i32 30
  %37 = load i32, ptr %36, align 8
  %38 = uitofp i32 %37 to double
  %39 = fmul double %34, %38
  store double %39, ptr %11, align 8
  %40 = load ptr, ptr %6, align 8
  %41 = load ptr, ptr %7, align 8
  %42 = load ptr, ptr %8, align 8
  call void @get_restriction_qual_cost(ptr noundef %40, ptr noundef %41, ptr noundef %42, ptr noundef %13)
  %43 = getelementptr inbounds nuw %struct.QualCost, ptr %13, i32 0, i32 0
  %44 = load double, ptr %43, align 8
  %45 = load double, ptr %9, align 8
  %46 = fadd double %45, %44
  store double %46, ptr %9, align 8
  %47 = load double, ptr @cpu_tuple_cost, align 8
  %48 = getelementptr inbounds nuw %struct.QualCost, ptr %13, i32 0, i32 1
  %49 = load double, ptr %48, align 8
  %50 = fadd double %47, %49
  store double %50, ptr %14, align 8
  %51 = load double, ptr %14, align 8
  %52 = load ptr, ptr %7, align 8
  %53 = getelementptr inbounds nuw %struct.RelOptInfo, ptr %52, i32 0, i32 31
  %54 = load double, ptr %53, align 8
  %55 = fmul double %51, %54
  store double %55, ptr %10, align 8
  %56 = load ptr, ptr %5, align 8
  %57 = getelementptr inbounds nuw %struct.Path, ptr %56, i32 0, i32 3
  %58 = load ptr, ptr %57, align 8
  %59 = getelementptr inbounds nuw %struct.PathTarget, ptr %58, i32 0, i32 3
  %60 = getelementptr inbounds nuw %struct.QualCost, ptr %59, i32 0, i32 0
  %61 = load double, ptr %60, align 8
  %62 = load double, ptr %9, align 8
  %63 = fadd double %62, %61
  store double %63, ptr %9, align 8
  %64 = load ptr, ptr %5, align 8
  %65 = getelementptr inbounds nuw %struct.Path, ptr %64, i32 0, i32 3
  %66 = load ptr, ptr %65, align 8
  %67 = getelementptr inbounds nuw %struct.PathTarget, ptr %66, i32 0, i32 3
  %68 = getelementptr inbounds nuw %struct.QualCost, ptr %67, i32 0, i32 1
  %69 = load double, ptr %68, align 8
  %70 = load ptr, ptr %5, align 8
  %71 = getelementptr inbounds nuw %struct.Path, ptr %70, i32 0, i32 8
  %72 = load double, ptr %71, align 8
  %73 = load double, ptr %10, align 8
  %74 = call double @llvm.fmuladd.f64(double %69, double %72, double %73)
  store double %74, ptr %10, align 8
  %75 = load ptr, ptr %5, align 8
  %76 = getelementptr inbounds nuw %struct.Path, ptr %75, i32 0, i32 7
  %77 = load i32, ptr %76, align 4
  %78 = icmp sgt i32 %77, 0
  br i1 %78, label %79, label %93

79:                                               ; preds = %30
  call void @llvm.lifetime.start.p0(i64 8, ptr %15) #9
  %80 = load ptr, ptr %5, align 8
  %81 = call double @get_parallel_divisor(ptr noundef %80)
  store double %81, ptr %15, align 8
  %82 = load double, ptr %15, align 8
  %83 = load double, ptr %10, align 8
  %84 = fdiv double %83, %82
  store double %84, ptr %10, align 8
  %85 = load ptr, ptr %5, align 8
  %86 = getelementptr inbounds nuw %struct.Path, ptr %85, i32 0, i32 8
  %87 = load double, ptr %86, align 8
  %88 = load double, ptr %15, align 8
  %89 = fdiv double %87, %88
  %90 = call double @clamp_row_est(double noundef %89)
  %91 = load ptr, ptr %5, align 8
  %92 = getelementptr inbounds nuw %struct.Path, ptr %91, i32 0, i32 8
  store double %90, ptr %92, align 8
  call void @llvm.lifetime.end.p0(i64 8, ptr %15) #9
  br label %93

93:                                               ; preds = %79, %30
  %94 = load i8, ptr @enable_seqscan, align 1, !range !4, !noundef !5
  %95 = trunc i8 %94 to i1
  %96 = select i1 %95, i32 0, i32 1
  %97 = load ptr, ptr %5, align 8
  %98 = getelementptr inbounds nuw %struct.Path, ptr %97, i32 0, i32 9
  store i32 %96, ptr %98, align 8
  %99 = load double, ptr %9, align 8
  %100 = load ptr, ptr %5, align 8
  %101 = getelementptr inbounds nuw %struct.Path, ptr %100, i32 0, i32 10
  store double %99, ptr %101, align 8
  %102 = load double, ptr %9, align 8
  %103 = load double, ptr %10, align 8
  %104 = fadd double %102, %103
  %105 = load double, ptr %11, align 8
  %106 = fadd double %104, %105
  %107 = load ptr, ptr %5, align 8
  %108 = getelementptr inbounds nuw %struct.Path, ptr %107, i32 0, i32 11
  store double %106, ptr %108, align 8
  call void @llvm.lifetime.end.p0(i64 8, ptr %14) #9
  call void @llvm.lifetime.end.p0(i64 16, ptr %13) #9
  call void @llvm.lifetime.end.p0(i64 8, ptr %12) #9
  call void @llvm.lifetime.end.p0(i64 8, ptr %11) #9
  call void @llvm.lifetime.end.p0(i64 8, ptr %10) #9
  call void @llvm.lifetime.end.p0(i64 8, ptr %9) #9
  ret void
}