; Function Attrs: nounwind uwtable
define dso_local void @cost_seqscan(ptr noundef captures(none) initializes((40, 48)) %0, ptr noundef %1, ptr noundef readonly captures(none) %2, ptr noundef readonly captures(address_is_null) %3) local_unnamed_addr #2 {
  %5 = alloca %struct.cost_qual_eval_context, align 8
  %6 = alloca double, align 8
  call void @llvm.lifetime.start.p0(i64 8, ptr nonnull %6) #17
  %.not = icmp eq ptr %3, null
  %spec.select = select i1 %.not, ptr %2, ptr %3
  %.sink.in = getelementptr inbounds nuw i8, ptr %spec.select, i64 16
  %.sink = load double, ptr %.sink.in, align 8
  %7 = getelementptr inbounds nuw i8, ptr %0, i64 40
  store double %.sink, ptr %7, align 8
  %8 = getelementptr inbounds nuw i8, ptr %2, i64 116
  %9 = load i32, ptr %8, align 4
  call void @get_tablespace_page_costs(i32 noundef %9, ptr noundef null, ptr noundef nonnull %6) #17
  %10 = load double, ptr %6, align 8
  %11 = getelementptr inbounds nuw i8, ptr %2, i64 192
  %12 = load i32, ptr %11, align 8
  br i1 %.not, label %34, label %13

13:                                               ; preds = %4
  %14 = getelementptr inbounds nuw i8, ptr %3, i64 24
  %15 = load ptr, ptr %14, align 8
  call void @llvm.lifetime.start.p0(i64 24, ptr nonnull %5) #17
  store ptr %1, ptr %5, align 8
  %16 = getelementptr inbounds nuw i8, ptr %5, i64 8
  %17 = getelementptr inbounds nuw i8, ptr %15, i64 4
  %.not.i.i = icmp eq ptr %15, null
  call void @llvm.memset.p0.i64(ptr noundef nonnull align 8 dereferenceable(16) %16, i8 0, i64 16, i1 false)
  br i1 %.not.i.i, label %cost_qual_eval.exit.i, label %.lr.ph.i.i

.lr.ph.i.i:                                       ; preds = %13
  %18 = getelementptr inbounds nuw i8, ptr %15, i64 16
  %19 = load i32, ptr %17, align 4
  %20 = icmp sgt i32 %19, 0
  br i1 %20, label %.lr.ph16.i.i, label %cost_qual_eval.exit.i

.lr.ph16.i.i:                                     ; preds = %.lr.ph.i.i, %.lr.ph16.i.i
  %indvars.iv.i.i = phi i64 [ %indvars.iv.next.i.i, %.lr.ph16.i.i ], [ 0, %.lr.ph.i.i ]
  %21 = load ptr, ptr %18, align 8
  %22 = getelementptr inbounds nuw %union.ListCell, ptr %21, i64 %indvars.iv.i.i
  %23 = load ptr, ptr %22, align 8
  %24 = call zeroext i1 @cost_qual_eval_walker(ptr noundef %23, ptr noundef nonnull %5)
  %indvars.iv.next.i.i = add nuw nsw i64 %indvars.iv.i.i, 1
  %25 = load i32, ptr %17, align 4
  %26 = sext i32 %25 to i64
  %27 = icmp slt i64 %indvars.iv.next.i.i, %26
  br i1 %27, label %.lr.ph16.i.i, label %cost_qual_eval.exit.i.loopexit

cost_qual_eval.exit.i.loopexit:                   ; preds = %.lr.ph16.i.i
  %.sroa.0.0.copyload.pre = load double, ptr %16, align 8
  %.sroa.7.0..sroa_idx.phi.trans.insert = getelementptr inbounds nuw i8, ptr %5, i64 16
  %.sroa.7.0.copyload.pre = load double, ptr %.sroa.7.0..sroa_idx.phi.trans.insert, align 8
  br label %cost_qual_eval.exit.i

cost_qual_eval.exit.i:                            ; preds = %cost_qual_eval.exit.i.loopexit, %.lr.ph.i.i, %13
  %.sroa.7.0.copyload = phi double [ %.sroa.7.0.copyload.pre, %cost_qual_eval.exit.i.loopexit ], [ 0.000000e+00, %.lr.ph.i.i ], [ 0.000000e+00, %13 ]
  %.sroa.0.0.copyload = phi double [ %.sroa.0.0.copyload.pre, %cost_qual_eval.exit.i.loopexit ], [ 0.000000e+00, %.lr.ph.i.i ], [ 0.000000e+00, %13 ]
  call void @llvm.lifetime.end.p0(i64 24, ptr nonnull %5) #17
  %28 = getelementptr inbounds nuw i8, ptr %2, i64 304
  %29 = load double, ptr %28, align 8
  %30 = fadd double %.sroa.0.0.copyload, %29
  %31 = getelementptr inbounds nuw i8, ptr %2, i64 312
  %32 = load double, ptr %31, align 8
  %33 = fadd double %.sroa.7.0.copyload, %32
  br label %get_restriction_qual_cost.exit

34:                                               ; preds = %4
  %35 = getelementptr inbounds nuw i8, ptr %2, i64 304
  %.sroa.0.0.copyload35 = load double, ptr %35, align 8
  %.sroa.7.0..sroa_idx36 = getelementptr inbounds nuw i8, ptr %2, i64 312
  %.sroa.7.0.copyload37 = load double, ptr %.sroa.7.0..sroa_idx36, align 8
  br label %get_restriction_qual_cost.exit

get_restriction_qual_cost.exit:                   ; preds = %cost_qual_eval.exit.i, %34
  %.sroa.7.0 = phi double [ %.sroa.7.0.copyload37, %34 ], [ %33, %cost_qual_eval.exit.i ]
  %.sroa.0.0 = phi double [ %.sroa.0.0.copyload35, %34 ], [ %30, %cost_qual_eval.exit.i ]
  %36 = load double, ptr @cpu_tuple_cost, align 8
  %37 = fadd double %.sroa.7.0, %36
  %38 = getelementptr inbounds nuw i8, ptr %2, i64 200
  %39 = load double, ptr %38, align 8
  %40 = fmul double %37, %39
  %41 = getelementptr inbounds nuw i8, ptr %0, i64 16
  %42 = load ptr, ptr %41, align 8
  %43 = getelementptr inbounds nuw i8, ptr %42, i64 24
  %44 = load double, ptr %43, align 8
  %45 = getelementptr inbounds nuw i8, ptr %42, i64 32
  %46 = load double, ptr %45, align 8
  %47 = load double, ptr %7, align 8
  %48 = call double @llvm.fmuladd.f64(double %46, double %47, double %40)
  %49 = getelementptr inbounds nuw i8, ptr %0, i64 36
  %50 = load i32, ptr %49, align 4
  %51 = icmp sgt i32 %50, 0
  br i1 %51, label %52, label %68

52:                                               ; preds = %get_restriction_qual_cost.exit
  %53 = uitofp nneg i32 %50 to double
  %54 = load i8, ptr @parallel_leader_participation, align 1, !range !4, !noundef !5
  %55 = trunc nuw i8 %54 to i1
  br i1 %55, label %56, label %get_parallel_divisor.exit

56:                                               ; preds = %52
  %57 = call double @llvm.fmuladd.f64(double %53, double -3.000000e-01, double 1.000000e+00)
  %58 = fcmp ogt double %57, 0.000000e+00
  %59 = select i1 %58, double %57, double -0.000000e+00
  %.1.i = fadd double %59, %53
  br label %get_parallel_divisor.exit

get_parallel_divisor.exit:                        ; preds = %52, %56
  %.0.i = phi double [ %.1.i, %56 ], [ %53, %52 ]
  %60 = fdiv double %48, %.0.i
  %61 = fdiv double %47, %.0.i
  %62 = fcmp ogt double %61, 1.000000e+100
  %63 = fcmp uno double %61, 0.000000e+00
  %or.cond.i = or i1 %62, %63
  br i1 %or.cond.i, label %clamp_row_est.exit, label %64

64:                                               ; preds = %get_parallel_divisor.exit
  %65 = fcmp ugt double %61, 1.000000e+00
  br i1 %65, label %66, label %clamp_row_est.exit

66:                                               ; preds = %64
  %67 = call double @llvm.rint.f64(double %61)
  br label %clamp_row_est.exit

clamp_row_est.exit:                               ; preds = %get_parallel_divisor.exit, %64, %66
  %.0.i33 = phi double [ %67, %66 ], [ 1.000000e+100, %get_parallel_divisor.exit ], [ 1.000000e+00, %64 ]
  store double %.0.i33, ptr %7, align 8
  br label %68

68:                                               ; preds = %clamp_row_est.exit, %get_restriction_qual_cost.exit
  %.0 = phi double [ %60, %clamp_row_est.exit ], [ %48, %get_restriction_qual_cost.exit ]
  %69 = fadd double %.sroa.0.0, 0.000000e+00
  %70 = fadd double %69, %44
  %71 = uitofp i32 %12 to double
  %72 = fmul double %10, %71
  %73 = load i8, ptr @enable_seqscan, align 1, !range !4, !noundef !5
  %74 = xor i8 %73, 1
  %not. = zext nneg i8 %74 to i32
  %75 = getelementptr inbounds nuw i8, ptr %0, i64 48
  store i32 %not., ptr %75, align 8
  %76 = getelementptr inbounds nuw i8, ptr %0, i64 56
  store double %70, ptr %76, align 8
  %77 = fadd double %70, %.0
  %78 = fadd double %72, %77
  %79 = getelementptr inbounds nuw i8, ptr %0, i64 64
  store double %78, ptr %79, align 8
  call void @llvm.lifetime.end.p0(i64 8, ptr nonnull %6) #17
  ret void
}